; Function Attrs: mustprogress nounwind uwtable
define dso_local noundef nonnull ptr @_ZN5clang9ModuleMap43createPrivateModuleFragmentForInterfaceUnitEPNS_6ModuleENS_14SourceLocationE(ptr nocapture noundef nonnull align 8 dereferenceable(1344) %0, ptr noundef %1, i32 %2) local_unnamed_addr #1 align 2 {
  %4 = tail call noalias noundef nonnull dereferenceable(2392) ptr @_Znwm(i64 noundef 2392) #23
  %5 = getelementptr inbounds nuw i8, ptr %0, i64 1088
  %6 = load i32, ptr %5, align 8
  %7 = add i32 %6, 1
  store i32 %7, ptr %5, align 8
  tail call void @_ZN5clang6ModuleC1EN4llvm9StringRefENS_14SourceLocationEPS0_bbj(ptr noundef nonnull align 8 dereferenceable(2392) %4, ptr nonnull @.str.4, i64 9, i32 %2, ptr noundef %1, i1 noundef zeroext false, i1 noundef zeroext true, i32 noundef %6) #21
  %8 = getelementptr inbounds nuw i8, ptr %4, i64 36
  store i32 7, ptr %8, align 4
  ret ptr %4
}